target datalayout = "e-m:e-p270:32:32-p271:32:32-p272:64:64-i64:64-i128:128-f80:128-n8:16:32:64-S128"
target triple = "x86_64-pc-linux-gnu"

%struct.t_interaction_function = type { ptr, ptr, i32, i32, i32, i32 }
%struct.t_ebin = type { i32, ptr, i64, i64, ptr, i64, i64, ptr }
%struct.gmx_enxnm_t = type { ptr, ptr }
%struct.t_energy = type { float, double, double }

@.str.1 = private unnamed_addr constant [120 x i8] c"generated/home/dtcxzyw/WorkSpace/Projects/compilers/llvm-opt-benchmark/bench/gromacs/gromacs/src/gromacs/mdlib/ebin.cpp\00", align 1
@.str.4 = private unnamed_addr constant [6 x i8] c"eb->e\00", align 1
@.str.5 = private unnamed_addr constant [10 x i8] c"eb->e_sim\00", align 1
@.str.6 = private unnamed_addr constant [8 x i8] c"eb->enm\00", align 1
@.str.7 = private unnamed_addr constant [7 x i8] c"kJ/mol\00", align 1
@interaction_function = external global [95 x %struct.t_interaction_function], align 16
@.str.8 = private unnamed_addr constant [3 x i8] c"nm\00", align 1
@.str.9 = private unnamed_addr constant [4 x i8] c"obs\00", align 1
@.str.10 = private unnamed_addr constant [2 x i8] c"K\00", align 1
@.str.11 = private unnamed_addr constant [4 x i8] c"bar\00", align 1

; Function Attrs: inlinehint mustprogress uwtable
define internal void @_ZL15gmx_srenew_implI11gmx_enxnm_tEvPKcS2_iRPT_m(ptr noundef %0, ptr noundef %1, i32 noundef %2, ptr noundef nonnull align 8 dereferenceable(8) %3, i64 noundef %4) #2 {
  %6 = alloca ptr, align 8
  %7 = alloca ptr, align 8
  %8 = alloca i32, align 4
  %9 = alloca ptr, align 8
  %10 = alloca i64, align 8
  store ptr %0, ptr %6, align 8, !tbaa !9
  store ptr %1, ptr %7, align 8, !tbaa !9
  store i32 %2, ptr %8, align 4, !tbaa !11
  store ptr %3, ptr %9, align 8, !tbaa !45
  store i64 %4, ptr %10, align 8, !tbaa !16
  %11 = load ptr, ptr %6, align 8, !tbaa !9
  %12 = load ptr, ptr %7, align 8, !tbaa !9
  %13 = load i32, ptr %8, align 4, !tbaa !11
  %14 = load ptr, ptr %9, align 8, !tbaa !45
  %15 = load ptr, ptr %14, align 8, !tbaa !30
  %16 = load i64, ptr %10, align 8, !tbaa !16
  %17 = call noundef ptr @_Z12save_reallocPKcS0_iPvmm(ptr noundef %11, ptr noundef %12, i32 noundef %13, ptr noundef %15, i64 noundef %16, i64 noundef 16)
  %18 = load ptr, ptr %9, align 8, !tbaa !45
  store ptr %17, ptr %18, align 8, !tbaa !30
  ret void
}

; Function Attrs: inlinehint mustprogress uwtable
define internal void @_ZL15gmx_srenew_implI8t_energyEvPKcS2_iRPT_m(ptr noundef %0, ptr noundef %1, i32 noundef %2, ptr noundef nonnull align 8 dereferenceable(8) %3, i64 noundef %4) #2 {
  %6 = alloca ptr, align 8
  %7 = alloca ptr, align 8
  %8 = alloca i32, align 4
  %9 = alloca ptr, align 8
  %10 = alloca i64, align 8
  store ptr %0, ptr %6, align 8, !tbaa !9
  store ptr %1, ptr %7, align 8, !tbaa !9
  store i32 %2, ptr %8, align 4, !tbaa !11
  store ptr %3, ptr %9, align 8, !tbaa !43
  store i64 %4, ptr %10, align 8, !tbaa !16
  %11 = load ptr, ptr %6, align 8, !tbaa !9
  %12 = load ptr, ptr %7, align 8, !tbaa !9
  %13 = load i32, ptr %8, align 4, !tbaa !11
  %14 = load ptr, ptr %9, align 8, !tbaa !43
  %15 = load ptr, ptr %14, align 8, !tbaa !29
  %16 = load i64, ptr %10, align 8, !tbaa !16
  %17 = call noundef ptr @_Z12save_reallocPKcS0_iPvmm(ptr noundef %11, ptr noundef %12, i32 noundef %13, ptr noundef %15, i64 noundef %16, i64 noundef 24)
  %18 = load ptr, ptr %9, align 8, !tbaa !43
  store ptr %17, ptr %18, align 8, !tbaa !29
  ret void
}

; Function Attrs: mustprogress uwtable
define noundef i32 @_Z14get_ebin_spaceP6t_ebiniPKPKcS2_(ptr noundef %0, i32 noundef %1, ptr noundef %2, ptr noundef %3) #0 {
  %5 = alloca ptr, align 8
  %6 = alloca i32, align 4
  %7 = alloca ptr, align 8
  %8 = alloca ptr, align 8
  %9 = alloca i32, align 4
  %10 = alloca i32, align 4
  %11 = alloca i32, align 4
  %12 = alloca ptr, align 8
  store ptr %0, ptr %5, align 8, !tbaa !4
  store i32 %1, ptr %6, align 4, !tbaa !11
  store ptr %2, ptr %7, align 8, !tbaa !31
  store ptr %3, ptr %8, align 8, !tbaa !9
  call void @llvm.lifetime.start.p0(i64 4, ptr %9) #14
  call void @llvm.lifetime.start.p0(i64 4, ptr %10) #14
  call void @llvm.lifetime.start.p0(i64 4, ptr %11) #14
  call void @llvm.lifetime.start.p0(i64 8, ptr %12) #14
  %13 = load ptr, ptr %5, align 8, !tbaa !4
  %14 = getelementptr inbounds nuw %struct.t_ebin, ptr %13, i32 0, i32 0
  %15 = load i32, ptr %14, align 8, !tbaa !18
  store i32 %15, ptr %9, align 4, !tbaa !11
  %16 = load i32, ptr %6, align 4, !tbaa !11
  %17 = load ptr, ptr %5, align 8, !tbaa !4
  %18 = getelementptr inbounds nuw %struct.t_ebin, ptr %17, i32 0, i32 0
  %19 = load i32, ptr %18, align 8, !tbaa !18
  %20 = add nsw i32 %19, %16
  store i32 %20, ptr %18, align 8, !tbaa !18
  %21 = load ptr, ptr %5, align 8, !tbaa !4
  %22 = getelementptr inbounds nuw %struct.t_ebin, ptr %21, i32 0, i32 4
  %23 = load ptr, ptr %5, align 8, !tbaa !4
  %24 = getelementptr inbounds nuw %struct.t_ebin, ptr %23, i32 0, i32 0
  %25 = load i32, ptr %24, align 8, !tbaa !18
  %26 = sext i32 %25 to i64
  call void @_ZL15gmx_srenew_implI8t_energyEvPKcS2_iRPT_m(ptr noundef @.str.4, ptr noundef @.str.1, i32 noundef 88, ptr noundef nonnull align 8 dereferenceable(8) %22, i64 noundef %26)
  %27 = load ptr, ptr %5, align 8, !tbaa !4
  %28 = getelementptr inbounds nuw %struct.t_ebin, ptr %27, i32 0, i32 7
  %29 = load ptr, ptr %5, align 8, !tbaa !4
  %30 = getelementptr inbounds nuw %struct.t_ebin, ptr %29, i32 0, i32 0
  %31 = load i32, ptr %30, align 8, !tbaa !18
  %32 = sext i32 %31 to i64
  call void @_ZL15gmx_srenew_implI8t_energyEvPKcS2_iRPT_m(ptr noundef @.str.5, ptr noundef @.str.1, i32 noundef 89, ptr noundef nonnull align 8 dereferenceable(8) %28, i64 noundef %32)
  %33 = load ptr, ptr %5, align 8, !tbaa !4
  %34 = getelementptr inbounds nuw %struct.t_ebin, ptr %33, i32 0, i32 1
  %35 = load ptr, ptr %5, align 8, !tbaa !4
  %36 = getelementptr inbounds nuw %struct.t_ebin, ptr %35, i32 0, i32 0
  %37 = load i32, ptr %36, align 8, !tbaa !18
  %38 = sext i32 %37 to i64
  call void @_ZL15gmx_srenew_implI11gmx_enxnm_tEvPKcS2_iRPT_m(ptr noundef @.str.6, ptr noundef @.str.1, i32 noundef 90, ptr noundef nonnull align 8 dereferenceable(8) %34, i64 noundef %38)
  %39 = load i32, ptr %9, align 4, !tbaa !11
  store i32 %39, ptr %10, align 4, !tbaa !11
  br label %40

40:                                               ; preds = %158, %4
  %41 = load i32, ptr %10, align 4, !tbaa !11
  %42 = load ptr, ptr %5, align 8, !tbaa !4
  %43 = getelementptr inbounds nuw %struct.t_ebin, ptr %42, i32 0, i32 0
  %44 = load i32, ptr %43, align 8, !tbaa !18
  %45 = icmp slt i32 %41, %44
  br i1 %45, label %46, label %161

46:                                               ; preds = %40
  %47 = load ptr, ptr %5, align 8, !tbaa !4
  %48 = getelementptr inbounds nuw %struct.t_ebin, ptr %47, i32 0, i32 4
  %49 = load ptr, ptr %48, align 8, !tbaa !27
  %50 = load i32, ptr %10, align 4, !tbaa !11
  %51 = sext i32 %50 to i64
  %52 = getelementptr inbounds %struct.t_energy, ptr %49, i64 %51
  %53 = getelementptr inbounds nuw %struct.t_energy, ptr %52, i32 0, i32 0
  store float 0.000000e+00, ptr %53, align 8, !tbaa !33
  %54 = load ptr, ptr %5, align 8, !tbaa !4
  %55 = getelementptr inbounds nuw %struct.t_ebin, ptr %54, i32 0, i32 4
  %56 = load ptr, ptr %55, align 8, !tbaa !27
  %57 = load i32, ptr %10, align 4, !tbaa !11
  %58 = sext i32 %57 to i64
  %59 = getelementptr inbounds %struct.t_energy, ptr %56, i64 %58
  %60 = getelementptr inbounds nuw %struct.t_energy, ptr %59, i32 0, i32 1
  store double 0.000000e+00, ptr %60, align 8, !tbaa !37
  %61 = load ptr, ptr %5, align 8, !tbaa !4
  %62 = getelementptr inbounds nuw %struct.t_ebin, ptr %61, i32 0, i32 4
  %63 = load ptr, ptr %62, align 8, !tbaa !27
  %64 = load i32, ptr %10, align 4, !tbaa !11
  %65 = sext i32 %64 to i64
  %66 = getelementptr inbounds %struct.t_energy, ptr %63, i64 %65
  %67 = getelementptr inbounds nuw %struct.t_energy, ptr %66, i32 0, i32 2
  store double 0.000000e+00, ptr %67, align 8, !tbaa !38
  %68 = load ptr, ptr %5, align 8, !tbaa !4
  %69 = getelementptr inbounds nuw %struct.t_ebin, ptr %68, i32 0, i32 7
  %70 = load ptr, ptr %69, align 8, !tbaa !28
  %71 = load i32, ptr %10, align 4, !tbaa !11
  %72 = sext i32 %71 to i64
  %73 = getelementptr inbounds %struct.t_energy, ptr %70, i64 %72
  %74 = getelementptr inbounds nuw %struct.t_energy, ptr %73, i32 0, i32 0
  store float 0.000000e+00, ptr %74, align 8, !tbaa !33
  %75 = load ptr, ptr %5, align 8, !tbaa !4
  %76 = getelementptr inbounds nuw %struct.t_ebin, ptr %75, i32 0, i32 7
  %77 = load ptr, ptr %76, align 8, !tbaa !28
  %78 = load i32, ptr %10, align 4, !tbaa !11
  %79 = sext i32 %78 to i64
  %80 = getelementptr inbounds %struct.t_energy, ptr %77, i64 %79
  %81 = getelementptr inbounds nuw %struct.t_energy, ptr %80, i32 0, i32 1
  store double 0.000000e+00, ptr %81, align 8, !tbaa !37
  %82 = load ptr, ptr %5, align 8, !tbaa !4
  %83 = getelementptr inbounds nuw %struct.t_ebin, ptr %82, i32 0, i32 7
  %84 = load ptr, ptr %83, align 8, !tbaa !28
  %85 = load i32, ptr %10, align 4, !tbaa !11
  %86 = sext i32 %85 to i64
  %87 = getelementptr inbounds %struct.t_energy, ptr %84, i64 %86
  %88 = getelementptr inbounds nuw %struct.t_energy, ptr %87, i32 0, i32 2
  store double 0.000000e+00, ptr %88, align 8, !tbaa !38
  %89 = load ptr, ptr %7, align 8, !tbaa !31
  %90 = load i32, ptr %10, align 4, !tbaa !11
  %91 = load i32, ptr %9, align 4, !tbaa !11
  %92 = sub nsw i32 %90, %91
  %93 = sext i32 %92 to i64
  %94 = getelementptr inbounds ptr, ptr %89, i64 %93
  %95 = load ptr, ptr %94, align 8, !tbaa !9
  %96 = call noundef ptr @_Z10gmx_strdupPKc(ptr noundef %95)
  %97 = load ptr, ptr %5, align 8, !tbaa !4
  %98 = getelementptr inbounds nuw %struct.t_ebin, ptr %97, i32 0, i32 1
  %99 = load ptr, ptr %98, align 8, !tbaa !21
  %100 = load i32, ptr %10, align 4, !tbaa !11
  %101 = sext i32 %100 to i64
  %102 = getelementptr inbounds %struct.gmx_enxnm_t, ptr %99, i64 %101
  %103 = getelementptr inbounds nuw %struct.gmx_enxnm_t, ptr %102, i32 0, i32 0
  store ptr %96, ptr %103, align 8, !tbaa !22
  %104 = load ptr, ptr %8, align 8, !tbaa !9
  %105 = icmp ne ptr %104, null
  br i1 %105, label %106, label %116

106:                                              ; preds = %46
  %107 = load ptr, ptr %8, align 8, !tbaa !9
  %108 = call noundef ptr @_Z10gmx_strdupPKc(ptr noundef %107)
  %109 = load ptr, ptr %5, align 8, !tbaa !4
  %110 = getelementptr inbounds nuw %struct.t_ebin, ptr %109, i32 0, i32 1
  %111 = load ptr, ptr %110, align 8, !tbaa !21
  %112 = load i32, ptr %10, align 4, !tbaa !11
  %113 = sext i32 %112 to i64
  %114 = getelementptr inbounds %struct.gmx_enxnm_t, ptr %111, i64 %113
  %115 = getelementptr inbounds nuw %struct.gmx_enxnm_t, ptr %114, i32 0, i32 1
  store ptr %108, ptr %115, align 8, !tbaa !24
  br label %157

116:                                              ; preds = %46
  store ptr @.str.7, ptr %12, align 8, !tbaa !9
  store i32 0, ptr %11, align 4, !tbaa !11
  br label %117

117:                                              ; preds = %144, %116
  %118 = load i32, ptr %11, align 4, !tbaa !11
  %119 = icmp slt i32 %118, 95
  br i1 %119, label %120, label %147

120:                                              ; preds = %117
  %121 = load ptr, ptr %5, align 8, !tbaa !4
  %122 = getelementptr inbounds nuw %struct.t_ebin, ptr %121, i32 0, i32 1
  %123 = load ptr, ptr %122, align 8, !tbaa !21
  %124 = load i32, ptr %10, align 4, !tbaa !11
  %125 = sext i32 %124 to i64
  %126 = getelementptr inbounds %struct.gmx_enxnm_t, ptr %123, i64 %125
  %127 = getelementptr inbounds nuw %struct.gmx_enxnm_t, ptr %126, i32 0, i32 0
  %128 = load ptr, ptr %127, align 8, !tbaa !22
  %129 = load i32, ptr %11, align 4, !tbaa !11
  %130 = sext i32 %129 to i64
  %131 = getelementptr inbounds [95 x %struct.t_interaction_function], ptr @interaction_function, i64 0, i64 %130
  %132 = getelementptr inbounds nuw %struct.t_interaction_function, ptr %131, i32 0, i32 1
  %133 = load ptr, ptr %132, align 8, !tbaa !39
  %134 = call i32 @strcmp(ptr noundef %128, ptr noundef %133) #15
  %135 = icmp eq i32 %134, 0
  br i1 %135, label %136, label %143

136:                                              ; preds = %120
  %137 = load i32, ptr %11, align 4, !tbaa !11
  switch i32 %137, label %142 [
    i32 55, label %138
    i32 57, label %139
    i32 83, label %140
    i32 85, label %141
    i32 86, label %141
  ]

138:                                              ; preds = %136
  store ptr @.str.8, ptr %12, align 8, !tbaa !9
  br label %142

139:                                              ; preds = %136
  store ptr @.str.9, ptr %12, align 8, !tbaa !9
  br label %142

140:                                              ; preds = %136
  store ptr @.str.10, ptr %12, align 8, !tbaa !9
  br label %142

141:                                              ; preds = %136, %136
  store ptr @.str.11, ptr %12, align 8, !tbaa !9
  br label %142

142:                                              ; preds = %136, %141, %140, %139, %138
  br label %143

143:                                              ; preds = %142, %120
  br label %144

144:                                              ; preds = %143
  %145 = load i32, ptr %11, align 4, !tbaa !11
  %146 = add nsw i32 %145, 1
  store i32 %146, ptr %11, align 4, !tbaa !11
  br label %117, !llvm.loop !41

147:                                              ; preds = %117
  %148 = load ptr, ptr %12, align 8, !tbaa !9
  %149 = call noundef ptr @_Z10gmx_strdupPKc(ptr noundef %148)
  %150 = load ptr, ptr %5, align 8, !tbaa !4
  %151 = getelementptr inbounds nuw %struct.t_ebin, ptr %150, i32 0, i32 1
  %152 = load ptr, ptr %151, align 8, !tbaa !21
  %153 = load i32, ptr %10, align 4, !tbaa !11
  %154 = sext i32 %153 to i64
  %155 = getelementptr inbounds %struct.gmx_enxnm_t, ptr %152, i64 %154
  %156 = getelementptr inbounds nuw %struct.gmx_enxnm_t, ptr %155, i32 0, i32 1
  store ptr %149, ptr %156, align 8, !tbaa !24
  br label %157

157:                                              ; preds = %147, %106
  br label %158

158:                                              ; preds = %157
  %159 = load i32, ptr %10, align 4, !tbaa !11
  %160 = add nsw i32 %159, 1
  store i32 %160, ptr %10, align 4, !tbaa !11
  br label %40, !llvm.loop !42

161:                                              ; preds = %40
  %162 = load i32, ptr %9, align 4, !tbaa !11
  call void @llvm.lifetime.end.p0(i64 8, ptr %12) #14
  call void @llvm.lifetime.end.p0(i64 4, ptr %11) #14
  call void @llvm.lifetime.end.p0(i64 4, ptr %10) #14
  call void @llvm.lifetime.end.p0(i64 4, ptr %9) #14
  ret i32 %162
}