; Function Attrs: mustprogress uwtable
define noundef i32 @_Z14get_ebin_spaceP6t_ebiniPKPKcS2_(ptr noundef captures(none) %0, i32 noundef %1, ptr noundef readonly captures(none) %2, ptr noundef %3) local_unnamed_addr #0 {
  %5 = load i32, ptr %0, align 8, !tbaa !4
  %6 = add nsw i32 %5, %1
  store i32 %6, ptr %0, align 8, !tbaa !4
  %7 = getelementptr inbounds nuw i8, ptr %0, i64 32
  %8 = sext i32 %6 to i64
  %9 = load ptr, ptr %7, align 8, !tbaa !21
  %10 = tail call noundef ptr @_Z12save_reallocPKcS0_iPvmm(ptr noundef nonnull @.str.4, ptr noundef nonnull @.str.1, i32 noundef 88, ptr noundef %9, i64 noundef range(i64 -2147483648, 2147483648) %8, i64 noundef 24)
  store ptr %10, ptr %7, align 8, !tbaa !21
  %11 = getelementptr inbounds nuw i8, ptr %0, i64 56
  %12 = load i32, ptr %0, align 8, !tbaa !4
  %13 = sext i32 %12 to i64
  %14 = load ptr, ptr %11, align 8, !tbaa !21
  %15 = tail call noundef ptr @_Z12save_reallocPKcS0_iPvmm(ptr noundef nonnull @.str.5, ptr noundef nonnull @.str.1, i32 noundef 89, ptr noundef %14, i64 noundef range(i64 -2147483648, 2147483648) %13, i64 noundef 24)
  store ptr %15, ptr %11, align 8, !tbaa !21
  %16 = getelementptr inbounds nuw i8, ptr %0, i64 8
  %17 = load i32, ptr %0, align 8, !tbaa !4
  %18 = sext i32 %17 to i64
  %19 = load ptr, ptr %16, align 8, !tbaa !22
  %20 = tail call noundef ptr @_Z12save_reallocPKcS0_iPvmm(ptr noundef nonnull @.str.6, ptr noundef nonnull @.str.1, i32 noundef 90, ptr noundef %19, i64 noundef range(i64 -2147483648, 2147483648) %18, i64 noundef 16)
  store ptr %20, ptr %16, align 8, !tbaa !22
  %21 = load i32, ptr %0, align 8, !tbaa !4
  %22 = icmp slt i32 %5, %21
  br i1 %22, label %.lr.ph, label %._crit_edge

.lr.ph:                                           ; preds = %4
  %.not = icmp eq ptr %3, null
  %23 = sext i32 %5 to i64
  br i1 %.not, label %.preheader.us, label %.lr.ph.split

.preheader.us:                                    ; preds = %.lr.ph, %36
  %indvars.iv54 = phi i64 [ %indvars.iv.next55, %36 ], [ %23, %.lr.ph ]
  %24 = load ptr, ptr %7, align 8, !tbaa !12
  %25 = getelementptr inbounds %struct.t_energy, ptr %24, i64 %indvars.iv54
  store float 0.000000e+00, ptr %25, align 8, !tbaa !23
  %26 = getelementptr inbounds %struct.t_energy, ptr %24, i64 %indvars.iv54, i32 1
  tail call void @llvm.memset.p0.i64(ptr noundef nonnull align 8 dereferenceable(16) %26, i8 0, i64 16, i1 false)
  %27 = load ptr, ptr %11, align 8, !tbaa !13
  %28 = getelementptr inbounds %struct.t_energy, ptr %27, i64 %indvars.iv54
  store float 0.000000e+00, ptr %28, align 8, !tbaa !23
  %29 = getelementptr inbounds %struct.t_energy, ptr %27, i64 %indvars.iv54, i32 1
  %30 = sub nsw i64 %indvars.iv54, %23
  %31 = getelementptr inbounds ptr, ptr %2, i64 %30
  tail call void @llvm.memset.p0.i64(ptr noundef nonnull align 8 dereferenceable(16) %29, i8 0, i64 16, i1 false)
  %32 = load ptr, ptr %31, align 8, !tbaa !27
  %33 = tail call noundef ptr @_Z10gmx_strdupPKc(ptr noundef %32)
  %34 = load ptr, ptr %16, align 8, !tbaa !14
  %35 = getelementptr inbounds %struct.gmx_enxnm_t, ptr %34, i64 %indvars.iv54
  store ptr %33, ptr %35, align 8, !tbaa !15
  br label %43

36:                                               ; preds = %54
  %37 = tail call noundef ptr @_Z10gmx_strdupPKc(ptr noundef %.1.us)
  %38 = load ptr, ptr %16, align 8, !tbaa !14
  %39 = getelementptr inbounds %struct.gmx_enxnm_t, ptr %38, i64 %indvars.iv54, i32 1
  store ptr %37, ptr %39, align 8, !tbaa !18
  %indvars.iv.next55 = add nsw i64 %indvars.iv54, 1
  %40 = load i32, ptr %0, align 8, !tbaa !4
  %41 = sext i32 %40 to i64
  %42 = icmp slt i64 %indvars.iv.next55, %41
  br i1 %42, label %.preheader.us, label %._crit_edge, !llvm.loop !28

43:                                               ; preds = %.preheader.us, %54
  %indvars.iv51 = phi i64 [ 0, %.preheader.us ], [ %indvars.iv.next52, %54 ]
  %.047.us = phi ptr [ @.str.7, %.preheader.us ], [ %.1.us, %54 ]
  %44 = getelementptr inbounds nuw [95 x %struct.t_interaction_function], ptr @interaction_function, i64 0, i64 %indvars.iv51, i32 1
  %45 = load ptr, ptr %44, align 8, !tbaa !29
  %46 = tail call i32 @strcmp(ptr noundef nonnull dereferenceable(1) %33, ptr noundef nonnull dereferenceable(1) %45) #16
  %47 = icmp eq i32 %46, 0
  br i1 %47, label %48, label %54

48:                                               ; preds = %43
  %49 = trunc nuw nsw i64 %indvars.iv51 to i32
  switch i32 %49, label %54 [
    i32 55, label %53
    i32 57, label %52
    i32 83, label %51
    i32 85, label %50
    i32 86, label %50
  ]

50:                                               ; preds = %48, %48
  br label %54

51:                                               ; preds = %48
  br label %54

52:                                               ; preds = %48
  br label %54

53:                                               ; preds = %48
  br label %54

54:                                               ; preds = %53, %52, %51, %50, %48, %43
  %.1.us = phi ptr [ %.047.us, %48 ], [ @.str.11, %50 ], [ @.str.10, %51 ], [ @.str.9, %52 ], [ @.str.8, %53 ], [ %.047.us, %43 ]
  %indvars.iv.next52 = add nuw nsw i64 %indvars.iv51, 1
  %exitcond.not = icmp eq i64 %indvars.iv.next52, 95
  br i1 %exitcond.not, label %36, label %43, !llvm.loop !31

.lr.ph.split:                                     ; preds = %.lr.ph, %.lr.ph.split
  %indvars.iv = phi i64 [ %indvars.iv.next, %.lr.ph.split ], [ %23, %.lr.ph ]
  %55 = load ptr, ptr %7, align 8, !tbaa !12
  %56 = getelementptr inbounds %struct.t_energy, ptr %55, i64 %indvars.iv
  store float 0.000000e+00, ptr %56, align 8, !tbaa !23
  %57 = getelementptr inbounds %struct.t_energy, ptr %55, i64 %indvars.iv, i32 1
  tail call void @llvm.memset.p0.i64(ptr noundef nonnull align 8 dereferenceable(16) %57, i8 0, i64 16, i1 false)
  %58 = load ptr, ptr %11, align 8, !tbaa !13
  %59 = getelementptr inbounds %struct.t_energy, ptr %58, i64 %indvars.iv
  store float 0.000000e+00, ptr %59, align 8, !tbaa !23
  %60 = getelementptr inbounds %struct.t_energy, ptr %58, i64 %indvars.iv, i32 1
  %61 = sub nsw i64 %indvars.iv, %23
  %62 = getelementptr inbounds ptr, ptr %2, i64 %61
  tail call void @llvm.memset.p0.i64(ptr noundef nonnull align 8 dereferenceable(16) %60, i8 0, i64 16, i1 false)
  %63 = load ptr, ptr %62, align 8, !tbaa !27
  %64 = tail call noundef ptr @_Z10gmx_strdupPKc(ptr noundef %63)
  %65 = load ptr, ptr %16, align 8, !tbaa !14
  %66 = getelementptr inbounds %struct.gmx_enxnm_t, ptr %65, i64 %indvars.iv
  store ptr %64, ptr %66, align 8, !tbaa !15
  %67 = tail call noundef ptr @_Z10gmx_strdupPKc(ptr noundef nonnull %3)
  %68 = load ptr, ptr %16, align 8, !tbaa !14
  %69 = getelementptr inbounds %struct.gmx_enxnm_t, ptr %68, i64 %indvars.iv, i32 1
  store ptr %67, ptr %69, align 8, !tbaa !18
  %indvars.iv.next = add nsw i64 %indvars.iv, 1
  %70 = load i32, ptr %0, align 8, !tbaa !4
  %71 = sext i32 %70 to i64
  %72 = icmp slt i64 %indvars.iv.next, %71
  br i1 %72, label %.lr.ph.split, label %._crit_edge, !llvm.loop !28

._crit_edge:                                      ; preds = %.lr.ph.split, %36, %4
  ret i32 %5
}